; Function Attrs: uwtable
define noundef zeroext i1 @_ZTv0_n80_N3nix10LocalStore19pathInfoIsUntrustedERKNS_13ValidPathInfoE(ptr noundef %0, ptr noundef nonnull align 8 dereferenceable(384) %1) unnamed_addr #4 align 2 {
  %3 = load ptr, ptr %0, align 8
  %4 = getelementptr inbounds i8, ptr %3, i64 -80
  %5 = load i64, ptr %4, align 8
  %6 = getelementptr inbounds i8, ptr %0, i64 %5
  %7 = load ptr, ptr %6, align 8
  %8 = getelementptr i8, ptr %7, i64 -152
  %9 = load i64, ptr %8, align 8
  %10 = getelementptr inbounds i8, ptr %6, i64 %9
  %11 = getelementptr inbounds i8, ptr %10, i64 144
  %12 = load i8, ptr %11, align 1
  %13 = and i8 %12, 1
  %.not.i = icmp eq i8 %13, 0
  br i1 %.not.i, label %_ZN3nix10LocalStore19pathInfoIsUntrustedERKNS_13ValidPathInfoE.exit, label %14

14:                                               ; preds = %2
  %15 = getelementptr i8, ptr %7, i64 -24
  %16 = load i64, ptr %15, align 8
  %17 = getelementptr inbounds i8, ptr %6, i64 %16
  %18 = tail call noundef nonnull align 8 dereferenceable(48) ptr @_ZN3nix10LocalStore13getPublicKeysB5cxx11Ev(ptr noundef nonnull align 8 dereferenceable(504) %6)
  %19 = tail call noundef i64 @_ZNK3nix13ValidPathInfo15checkSignaturesERKNS_5StoreERKSt3mapINSt7__cxx1112basic_stringIcSt11char_traitsIcESaIcEEENS_9PublicKeyESt4lessISA_ESaISt4pairIKSA_SB_EEE(ptr noundef nonnull align 8 dereferenceable(384) %1, ptr noundef nonnull align 8 dereferenceable(264) %17, ptr noundef nonnull align 8 dereferenceable(48) %18)
  %.not2.i = icmp eq i64 %19, 0
  br label %_ZN3nix10LocalStore19pathInfoIsUntrustedERKNS_13ValidPathInfoE.exit

_ZN3nix10LocalStore19pathInfoIsUntrustedERKNS_13ValidPathInfoE.exit: ; preds = %2, %14
  %20 = phi i1 [ false, %2 ], [ %.not2.i, %14 ]
  ret i1 %20
}